target datalayout = "e-m:e-p270:32:32-p271:32:32-p272:64:64-i64:64-i128:128-f80:128-n8:16:32:64-S128"
target triple = "x86_64-pc-linux-gnu"

%struct.darktable_t = type { %struct.dt_codepath_t, i32, i32, ptr, ptr, ptr, ptr, ptr, ptr, ptr, ptr, ptr, ptr, ptr, ptr, ptr, ptr, ptr, ptr, ptr, ptr, ptr, ptr, ptr, ptr, ptr, ptr, ptr, ptr, ptr, [64 x %struct.dt_pthread_mutex_t], %struct.dt_pthread_mutex_t, %struct.dt_pthread_mutex_t, %struct.dt_pthread_mutex_t, %struct.dt_pthread_mutex_t, %struct.dt_pthread_mutex_t, ptr, ptr, ptr, ptr, ptr, ptr, ptr, ptr, ptr, ptr, ptr, ptr, ptr, %struct.dt_lua_state_t, ptr, double, ptr, i32, [47 x i32], i32, i32, ptr, ptr, %struct.dt_sys_resources_t, %struct.dt_backthumb_t, %struct.dt_gimp_t }
%struct.dt_codepath_t = type { i8, [3 x i8] }
%struct.dt_pthread_mutex_t = type { %union.pthread_mutex_t }
%union.pthread_mutex_t = type { %struct.__pthread_mutex_s }
%struct.__pthread_mutex_s = type { i32, i32, i32, i32, i32, i16, i16, %struct.__pthread_internal_list }
%struct.__pthread_internal_list = type { ptr, ptr }
%struct.dt_lua_state_t = type { i32 }
%struct.dt_sys_resources_t = type { i64, i64, ptr, ptr, i32 }
%struct.dt_backthumb_t = type { double, double, i32, i32, i32, i32 }
%struct.dt_gimp_t = type { i32, ptr, ptr, i32, i32 }

@darktable = external global %struct.darktable_t, align 8
@.str = private unnamed_addr constant [41 x i8] c"[sql] %s:%d, function %s(): prepare \22%s\22\00", align 1
@.str.1 = private unnamed_addr constant [115 x i8] c"generated/home/dtcxzyw/WorkSpace/Projects/compilers/llvm-opt-benchmark/bench/darktable/darktable/src/common/tags.c\00", align 1
@stderr = external global ptr, align 8
@.str.3 = private unnamed_addr constant [53 x i8] c"sqlite3 error: %s:%d, function %s(), query \22%s\22: %s\0A\00", align 1
@.str.4 = private unnamed_addr constant [41 x i8] c"sqlite3 error: %s:%d, function %s(): %s\0A\00", align 1
@__FUNCTION__.dt_tag_rename = private unnamed_addr constant [14 x i8] c"dt_tag_rename\00", align 1
@.str.18 = private unnamed_addr constant [45 x i8] c"UPDATE data.tags SET name = ?2 WHERE id = ?1\00", align 1

; Function Attrs: nounwind uwtable
define void @dt_tag_rename(i32 noundef %0, ptr noundef %1) #0 {
  %3 = alloca i32, align 4
  %4 = alloca ptr, align 8
  %5 = alloca ptr, align 8
  %6 = alloca i32, align 4
  %7 = alloca i32, align 4
  %8 = alloca i32, align 4
  %9 = alloca i32, align 4
  store i32 %0, ptr %3, align 4, !tbaa !52
  store ptr %1, ptr %4, align 8, !tbaa !6
  call void @llvm.lifetime.start.p0(i64 8, ptr %5) #8
  %10 = load ptr, ptr %4, align 8, !tbaa !6
  %11 = icmp ne ptr %10, null
  br i1 %11, label %12, label %17

12:                                               ; preds = %2
  %13 = load ptr, ptr %4, align 8, !tbaa !6
  %14 = getelementptr inbounds i8, ptr %13, i64 0
  %15 = load i8, ptr %14, align 1, !tbaa !13
  %16 = icmp ne i8 %15, 0
  br i1 %16, label %18, label %17

17:                                               ; preds = %12, %2
  store i32 1, ptr %6, align 4
  br label %80

18:                                               ; preds = %12
  %19 = load ptr, ptr %4, align 8, !tbaa !6
  %20 = call i32 @dt_tag_exists(ptr noundef %19, ptr noundef null)
  %21 = icmp ne i32 %20, 0
  br i1 %21, label %22, label %23

22:                                               ; preds = %18
  store i32 1, ptr %6, align 4
  br label %80

23:                                               ; preds = %18
  br label %24

24:                                               ; preds = %23
  br label %25

25:                                               ; preds = %24
  %26 = load i32, ptr getelementptr inbounds nuw (%struct.darktable_t, ptr @darktable, i32 0, i32 2), align 8, !tbaa !14
  %27 = and i32 256, %26
  %28 = icmp ne i32 %27, 0
  br i1 %28, label %29, label %35

29:                                               ; preds = %25
  %30 = load i32, ptr getelementptr inbounds nuw (%struct.darktable_t, ptr @darktable, i32 0, i32 2), align 8, !tbaa !14
  %31 = xor i32 %30, -1
  %32 = and i32 0, %31
  %33 = icmp ne i32 %32, 0
  br i1 %33, label %35, label %34

34:                                               ; preds = %29
  call void (ptr, ...) @dt_print_ext(ptr noundef @.str, ptr noundef @.str.1, i32 noundef 347, ptr noundef @__FUNCTION__.dt_tag_rename, ptr noundef @.str.18)
  br label %35

35:                                               ; preds = %34, %29, %25
  br label %36

36:                                               ; preds = %35
  br label %37

37:                                               ; preds = %36
  call void @llvm.lifetime.start.p0(i64 4, ptr %7) #8
  %38 = load ptr, ptr getelementptr inbounds nuw (%struct.darktable_t, ptr @darktable, i32 0, i32 18), align 8, !tbaa !51
  %39 = call ptr @dt_database_get(ptr noundef %38)
  %40 = call i32 @sqlite3_prepare_v2(ptr noundef %39, ptr noundef @.str.18, i32 noundef -1, ptr noundef %5, ptr noundef null)
  store i32 %40, ptr %7, align 4, !tbaa !52
  %41 = load i32, ptr %7, align 4, !tbaa !52
  %42 = icmp ne i32 %41, 0
  br i1 %42, label %43, label %49

43:                                               ; preds = %37
  %44 = load ptr, ptr @stderr, align 8, !tbaa !53
  %45 = load ptr, ptr getelementptr inbounds nuw (%struct.darktable_t, ptr @darktable, i32 0, i32 18), align 8, !tbaa !51
  %46 = call ptr @dt_database_get(ptr noundef %45)
  %47 = call ptr @sqlite3_errmsg(ptr noundef %46)
  %48 = call i32 (ptr, ptr, ...) @fprintf(ptr noundef %44, ptr noundef @.str.3, ptr noundef @.str.1, i32 noundef 347, ptr noundef @__FUNCTION__.dt_tag_rename, ptr noundef @.str.18, ptr noundef %47) #8
  br label %49

49:                                               ; preds = %43, %37
  call void @llvm.lifetime.end.p0(i64 4, ptr %7) #8
  br label %50

50:                                               ; preds = %49
  br label %51

51:                                               ; preds = %50
  call void @llvm.lifetime.start.p0(i64 4, ptr %8) #8
  %52 = load ptr, ptr %5, align 8, !tbaa !55
  %53 = load i32, ptr %3, align 4, !tbaa !52
  %54 = call i32 @sqlite3_bind_int(ptr noundef %52, i32 noundef 1, i32 noundef %53)
  store i32 %54, ptr %8, align 4, !tbaa !52
  %55 = load i32, ptr %8, align 4, !tbaa !52
  %56 = icmp ne i32 %55, 0
  br i1 %56, label %57, label %63

57:                                               ; preds = %51
  %58 = load ptr, ptr @stderr, align 8, !tbaa !53
  %59 = load ptr, ptr getelementptr inbounds nuw (%struct.darktable_t, ptr @darktable, i32 0, i32 18), align 8, !tbaa !51
  %60 = call ptr @dt_database_get(ptr noundef %59)
  %61 = call ptr @sqlite3_errmsg(ptr noundef %60)
  %62 = call i32 (ptr, ptr, ...) @fprintf(ptr noundef %58, ptr noundef @.str.4, ptr noundef @.str.1, i32 noundef 348, ptr noundef @__FUNCTION__.dt_tag_rename, ptr noundef %61) #8
  br label %63

63:                                               ; preds = %57, %51
  call void @llvm.lifetime.end.p0(i64 4, ptr %8) #8
  call void @llvm.lifetime.start.p0(i64 4, ptr %9) #8
  %64 = load ptr, ptr %5, align 8, !tbaa !55
  %65 = load ptr, ptr %4, align 8, !tbaa !6
  %66 = call i32 @sqlite3_bind_text(ptr noundef %64, i32 noundef 2, ptr noundef %65, i32 noundef -1, ptr noundef inttoptr (i64 -1 to ptr))
  store i32 %66, ptr %9, align 4, !tbaa !52
  %67 = load i32, ptr %9, align 4, !tbaa !52
  %68 = icmp ne i32 %67, 0
  br i1 %68, label %69, label %75

69:                                               ; preds = %63
  %70 = load ptr, ptr @stderr, align 8, !tbaa !53
  %71 = load ptr, ptr getelementptr inbounds nuw (%struct.darktable_t, ptr @darktable, i32 0, i32 18), align 8, !tbaa !51
  %72 = call ptr @dt_database_get(ptr noundef %71)
  %73 = call ptr @sqlite3_errmsg(ptr noundef %72)
  %74 = call i32 (ptr, ptr, ...) @fprintf(ptr noundef %70, ptr noundef @.str.4, ptr noundef @.str.1, i32 noundef 349, ptr noundef @__FUNCTION__.dt_tag_rename, ptr noundef %73) #8
  br label %75

75:                                               ; preds = %69, %63
  call void @llvm.lifetime.end.p0(i64 4, ptr %9) #8
  %76 = load ptr, ptr %5, align 8, !tbaa !55
  %77 = call i32 @sqlite3_step(ptr noundef %76)
  %78 = load ptr, ptr %5, align 8, !tbaa !55
  %79 = call i32 @sqlite3_finalize(ptr noundef %78)
  store i32 0, ptr %6, align 4
  br label %80

80:                                               ; preds = %75, %22, %17
  call void @llvm.lifetime.end.p0(i64 8, ptr %5) #8
  %81 = load i32, ptr %6, align 4
  switch i32 %81, label %83 [
    i32 0, label %82
    i32 1, label %82
  ]

82:                                               ; preds = %80, %80
  ret void

83:                                               ; preds = %80
  unreachable
}