; Function Attrs: nounwind uwtable
define void @dt_tag_rename(i32 noundef %0, ptr noundef %1) local_unnamed_addr #0 {
  %3 = alloca ptr, align 8
  call void @llvm.lifetime.start.p0(i64 8, ptr nonnull %3) #11
  %.not = icmp eq ptr %1, null
  br i1 %.not, label %45, label %4

4:                                                ; preds = %2
  %5 = load i8, ptr %1, align 1, !tbaa !6
  %.not7 = icmp eq i8 %5, 0
  br i1 %.not7, label %45, label %6

6:                                                ; preds = %4
  %7 = tail call i32 @dt_tag_exists(ptr noundef nonnull %1, ptr noundef null)
  %.not8 = icmp eq i32 %7, 0
  br i1 %.not8, label %8, label %45

8:                                                ; preds = %6
  %9 = load i32, ptr getelementptr inbounds nuw (i8, ptr @darktable, i64 8), align 8, !tbaa !9
  %10 = and i32 %9, 256
  %.not9 = icmp eq i32 %10, 0
  br i1 %.not9, label %12, label %11

11:                                               ; preds = %8
  tail call void (ptr, ...) @dt_print_ext(ptr noundef nonnull @.str, ptr noundef nonnull @.str.1, i32 noundef 347, ptr noundef nonnull @__FUNCTION__.dt_tag_rename, ptr noundef nonnull @.str.18) #11
  br label %12

12:                                               ; preds = %11, %8
  %13 = load ptr, ptr getelementptr inbounds nuw (i8, ptr @darktable, i64 136), align 8, !tbaa !49
  %14 = tail call ptr @dt_database_get(ptr noundef %13) #11
  %15 = call i32 @sqlite3_prepare_v2(ptr noundef %14, ptr noundef nonnull @.str.18, i32 noundef -1, ptr noundef nonnull %3, ptr noundef null) #11
  %.not10 = icmp eq i32 %15, 0
  br i1 %.not10, label %22, label %16

16:                                               ; preds = %12
  %17 = load ptr, ptr @stderr, align 8, !tbaa !50
  %18 = load ptr, ptr getelementptr inbounds nuw (i8, ptr @darktable, i64 136), align 8, !tbaa !49
  %19 = call ptr @dt_database_get(ptr noundef %18) #11
  %20 = call ptr @sqlite3_errmsg(ptr noundef %19) #11
  %21 = call i32 (ptr, ptr, ...) @fprintf(ptr noundef %17, ptr noundef nonnull @.str.3, ptr noundef nonnull @.str.1, i32 noundef 347, ptr noundef nonnull @__FUNCTION__.dt_tag_rename, ptr noundef nonnull @.str.18, ptr noundef %20) #12
  br label %22

22:                                               ; preds = %16, %12
  %23 = load ptr, ptr %3, align 8, !tbaa !52
  %24 = call i32 @sqlite3_bind_int(ptr noundef %23, i32 noundef 1, i32 noundef %0) #11
  %.not11 = icmp eq i32 %24, 0
  br i1 %.not11, label %31, label %25

25:                                               ; preds = %22
  %26 = load ptr, ptr @stderr, align 8, !tbaa !50
  %27 = load ptr, ptr getelementptr inbounds nuw (i8, ptr @darktable, i64 136), align 8, !tbaa !49
  %28 = call ptr @dt_database_get(ptr noundef %27) #11
  %29 = call ptr @sqlite3_errmsg(ptr noundef %28) #11
  %30 = call i32 (ptr, ptr, ...) @fprintf(ptr noundef %26, ptr noundef nonnull @.str.4, ptr noundef nonnull @.str.1, i32 noundef 348, ptr noundef nonnull @__FUNCTION__.dt_tag_rename, ptr noundef %29) #12
  br label %31

31:                                               ; preds = %25, %22
  %32 = load ptr, ptr %3, align 8, !tbaa !52
  %33 = call i32 @sqlite3_bind_text(ptr noundef %32, i32 noundef 2, ptr noundef nonnull %1, i32 noundef -1, ptr noundef nonnull inttoptr (i64 -1 to ptr)) #11
  %.not12 = icmp eq i32 %33, 0
  br i1 %.not12, label %40, label %34

34:                                               ; preds = %31
  %35 = load ptr, ptr @stderr, align 8, !tbaa !50
  %36 = load ptr, ptr getelementptr inbounds nuw (i8, ptr @darktable, i64 136), align 8, !tbaa !49
  %37 = call ptr @dt_database_get(ptr noundef %36) #11
  %38 = call ptr @sqlite3_errmsg(ptr noundef %37) #11
  %39 = call i32 (ptr, ptr, ...) @fprintf(ptr noundef %35, ptr noundef nonnull @.str.4, ptr noundef nonnull @.str.1, i32 noundef 349, ptr noundef nonnull @__FUNCTION__.dt_tag_rename, ptr noundef %38) #12
  br label %40

40:                                               ; preds = %34, %31
  %41 = load ptr, ptr %3, align 8, !tbaa !52
  %42 = call i32 @sqlite3_step(ptr noundef %41) #11
  %43 = load ptr, ptr %3, align 8, !tbaa !52
  %44 = call i32 @sqlite3_finalize(ptr noundef %43) #11
  br label %45

45:                                               ; preds = %6, %2, %4, %40
  call void @llvm.lifetime.end.p0(i64 8, ptr nonnull %3) #11
  ret void
}